target datalayout = "e-m:e-p270:32:32-p271:32:32-p272:64:64-i64:64-i128:128-f80:128-n8:16:32:64-S128"
target triple = "x86_64-pc-linux-gnu"

; Function Attrs: inlinehint nounwind uwtable
define internal void @u32tole64(i32 noundef %0, ptr noundef %1) #3 {
  %3 = alloca i32, align 4
  %4 = alloca ptr, align 8
  store i32 %0, ptr %3, align 4, !tbaa !10
  store ptr %1, ptr %4, align 8, !tbaa !8
  %5 = load i32, ptr %3, align 4, !tbaa !10
  %6 = zext i32 %5 to i64
  %7 = load ptr, ptr %4, align 8, !tbaa !8
  store i64 %6, ptr %7, align 8, !tbaa !12
  ret void
}

; Function Attrs: nounwind uwtable
define i32 @wc_Poly1305_EncodeSizes(ptr noundef %0, i32 noundef %1, i32 noundef %2) #0 {
  %4 = alloca i32, align 4
  %5 = alloca ptr, align 8
  %6 = alloca i32, align 4
  %7 = alloca i32, align 4
  %8 = alloca i32, align 4
  %9 = alloca [16 x i8], align 16
  %10 = alloca i32, align 4
  store ptr %0, ptr %5, align 8, !tbaa !3
  store i32 %1, ptr %6, align 4, !tbaa !10
  store i32 %2, ptr %7, align 4, !tbaa !10
  call void @llvm.lifetime.start.p0(i64 4, ptr %8) #4
  call void @llvm.lifetime.start.p0(i64 16, ptr %9) #4
  %11 = load ptr, ptr %5, align 8, !tbaa !3
  %12 = icmp eq ptr %11, null
  br i1 %12, label %13, label %14

13:                                               ; preds = %3
  store i32 -173, ptr %4, align 4
  store i32 1, ptr %10, align 4
  br label %25

14:                                               ; preds = %3
  %15 = getelementptr inbounds [16 x i8], ptr %9, i64 0, i64 0
  call void @llvm.memset.p0.i64(ptr align 16 %15, i8 0, i64 16, i1 false)
  %16 = load i32, ptr %6, align 4, !tbaa !10
  %17 = getelementptr inbounds [16 x i8], ptr %9, i64 0, i64 0
  call void @u32tole64(i32 noundef %16, ptr noundef %17)
  %18 = load i32, ptr %7, align 4, !tbaa !10
  %19 = getelementptr inbounds [16 x i8], ptr %9, i64 0, i64 0
  %20 = getelementptr inbounds i8, ptr %19, i64 8
  call void @u32tole64(i32 noundef %18, ptr noundef %20)
  %21 = load ptr, ptr %5, align 8, !tbaa !3
  %22 = getelementptr inbounds [16 x i8], ptr %9, i64 0, i64 0
  %23 = call i32 @wc_Poly1305Update(ptr noundef %21, ptr noundef %22, i32 noundef 16)
  store i32 %23, ptr %8, align 4, !tbaa !10
  %24 = load i32, ptr %8, align 4, !tbaa !10
  store i32 %24, ptr %4, align 4
  store i32 1, ptr %10, align 4
  br label %25

25:                                               ; preds = %14, %13
  call void @llvm.lifetime.end.p0(i64 16, ptr %9) #4
  call void @llvm.lifetime.end.p0(i64 4, ptr %8) #4
  %26 = load i32, ptr %4, align 4
  ret i32 %26
}

; Function Attrs: nounwind uwtable
define i32 @wc_Poly1305_MAC(ptr noundef %0, ptr noundef %1, i32 noundef %2, ptr noundef %3, i32 noundef %4, ptr noundef %5, i32 noundef %6) #0 {
  %8 = alloca i32, align 4
  %9 = alloca ptr, align 8
  %10 = alloca ptr, align 8
  %11 = alloca i32, align 4
  %12 = alloca ptr, align 8
  %13 = alloca i32, align 4
  %14 = alloca ptr, align 8
  %15 = alloca i32, align 4
  %16 = alloca i32, align 4
  %17 = alloca i32, align 4
  store ptr %0, ptr %9, align 8, !tbaa !3
  store ptr %1, ptr %10, align 8, !tbaa !8
  store i32 %2, ptr %11, align 4, !tbaa !10
  store ptr %3, ptr %12, align 8, !tbaa !8
  store i32 %4, ptr %13, align 4, !tbaa !10
  store ptr %5, ptr %14, align 8, !tbaa !8
  store i32 %6, ptr %15, align 4, !tbaa !10
  call void @llvm.lifetime.start.p0(i64 4, ptr %16) #4
  %18 = load ptr, ptr %9, align 8, !tbaa !3
  %19 = icmp eq ptr %18, null
  br i1 %19, label %29, label %20

20:                                               ; preds = %7
  %21 = load ptr, ptr %12, align 8, !tbaa !8
  %22 = icmp eq ptr %21, null
  br i1 %22, label %29, label %23

23:                                               ; preds = %20
  %24 = load ptr, ptr %14, align 8, !tbaa !8
  %25 = icmp eq ptr %24, null
  br i1 %25, label %29, label %26

26:                                               ; preds = %23
  %27 = load i32, ptr %15, align 4, !tbaa !10
  %28 = icmp ult i32 %27, 16
  br i1 %28, label %29, label %30

29:                                               ; preds = %26, %23, %20, %7
  store i32 -173, ptr %8, align 4
  store i32 1, ptr %17, align 4
  br label %81

30:                                               ; preds = %26
  %31 = load i32, ptr %11, align 4, !tbaa !10
  %32 = icmp ugt i32 %31, 0
  br i1 %32, label %33, label %53

33:                                               ; preds = %30
  %34 = load ptr, ptr %10, align 8, !tbaa !8
  %35 = icmp eq ptr %34, null
  br i1 %35, label %36, label %37

36:                                               ; preds = %33
  store i32 -173, ptr %8, align 4
  store i32 1, ptr %17, align 4
  br label %81

37:                                               ; preds = %33
  %38 = load ptr, ptr %9, align 8, !tbaa !3
  %39 = load ptr, ptr %10, align 8, !tbaa !8
  %40 = load i32, ptr %11, align 4, !tbaa !10
  %41 = call i32 @wc_Poly1305Update(ptr noundef %38, ptr noundef %39, i32 noundef %40)
  store i32 %41, ptr %16, align 4, !tbaa !10
  %42 = icmp ne i32 %41, 0
  br i1 %42, label %43, label %45

43:                                               ; preds = %37
  %44 = load i32, ptr %16, align 4, !tbaa !10
  store i32 %44, ptr %8, align 4
  store i32 1, ptr %17, align 4
  br label %81

45:                                               ; preds = %37
  %46 = load ptr, ptr %9, align 8, !tbaa !3
  %47 = load i32, ptr %11, align 4, !tbaa !10
  %48 = call i32 @wc_Poly1305_Pad(ptr noundef %46, i32 noundef %47)
  store i32 %48, ptr %16, align 4, !tbaa !10
  %49 = icmp ne i32 %48, 0
  br i1 %49, label %50, label %52

50:                                               ; preds = %45
  %51 = load i32, ptr %16, align 4, !tbaa !10
  store i32 %51, ptr %8, align 4
  store i32 1, ptr %17, align 4
  br label %81

52:                                               ; preds = %45
  br label %53

53:                                               ; preds = %52, %30
  %54 = load ptr, ptr %9, align 8, !tbaa !3
  %55 = load ptr, ptr %12, align 8, !tbaa !8
  %56 = load i32, ptr %13, align 4, !tbaa !10
  %57 = call i32 @wc_Poly1305Update(ptr noundef %54, ptr noundef %55, i32 noundef %56)
  store i32 %57, ptr %16, align 4, !tbaa !10
  %58 = icmp ne i32 %57, 0
  br i1 %58, label %59, label %61

59:                                               ; preds = %53
  %60 = load i32, ptr %16, align 4, !tbaa !10
  store i32 %60, ptr %8, align 4
  store i32 1, ptr %17, align 4
  br label %81

61:                                               ; preds = %53
  %62 = load ptr, ptr %9, align 8, !tbaa !3
  %63 = load i32, ptr %13, align 4, !tbaa !10
  %64 = call i32 @wc_Poly1305_Pad(ptr noundef %62, i32 noundef %63)
  store i32 %64, ptr %16, align 4, !tbaa !10
  %65 = icmp ne i32 %64, 0
  br i1 %65, label %66, label %68

66:                                               ; preds = %61
  %67 = load i32, ptr %16, align 4, !tbaa !10
  store i32 %67, ptr %8, align 4
  store i32 1, ptr %17, align 4
  br label %81

68:                                               ; preds = %61
  %69 = load ptr, ptr %9, align 8, !tbaa !3
  %70 = load i32, ptr %11, align 4, !tbaa !10
  %71 = load i32, ptr %13, align 4, !tbaa !10
  %72 = call i32 @wc_Poly1305_EncodeSizes(ptr noundef %69, i32 noundef %70, i32 noundef %71)
  store i32 %72, ptr %16, align 4, !tbaa !10
  %73 = icmp ne i32 %72, 0
  br i1 %73, label %74, label %76

74:                                               ; preds = %68
  %75 = load i32, ptr %16, align 4, !tbaa !10
  store i32 %75, ptr %8, align 4
  store i32 1, ptr %17, align 4
  br label %81

76:                                               ; preds = %68
  %77 = load ptr, ptr %9, align 8, !tbaa !3
  %78 = load ptr, ptr %14, align 8, !tbaa !8
  %79 = call i32 @wc_Poly1305Final(ptr noundef %77, ptr noundef %78)
  store i32 %79, ptr %16, align 4, !tbaa !10
  %80 = load i32, ptr %16, align 4, !tbaa !10
  store i32 %80, ptr %8, align 4
  store i32 1, ptr %17, align 4
  br label %81

81:                                               ; preds = %76, %74, %66, %59, %50, %43, %36, %29
  call void @llvm.lifetime.end.p0(i64 4, ptr %16) #4
  %82 = load i32, ptr %8, align 4
  ret i32 %82
}