; Function Attrs: nofree norecurse nosync nounwind memory(argmem: readwrite) uwtable
define range(i32 -173, 1) i32 @wc_Poly1305_MAC(ptr noundef captures(address_is_null) %0, ptr noundef readonly captures(address_is_null) %1, i32 noundef %2, ptr noundef captures(address_is_null) %3, i32 noundef %4, ptr noundef captures(address_is_null) %5, i32 noundef %6) local_unnamed_addr #2 {
  %8 = alloca [16 x i8], align 16
  %9 = icmp eq ptr %0, null
  %10 = icmp eq ptr %3, null
  %or.cond = or i1 %9, %10
  %11 = icmp eq ptr %5, null
  %or.cond3 = or i1 %or.cond, %11
  %12 = icmp ult i32 %6, 16
  %or.cond5 = or i1 %or.cond3, %12
  br i1 %or.cond5, label %94, label %13

13:                                               ; preds = %7
  %.not = icmp eq i32 %2, 0
  br i1 %.not, label %56, label %14

14:                                               ; preds = %13
  %15 = icmp eq ptr %1, null
  br i1 %15, label %94, label %16

16:                                               ; preds = %14
  %17 = getelementptr inbounds nuw i8, ptr %0, i64 64
  %18 = load i64, ptr %17, align 8, !tbaa !7
  %.not.i = icmp eq i64 %18, 0
  br i1 %.not.i, label %36, label %19

19:                                               ; preds = %16
  %20 = sub i64 16, %18
  %21 = zext i32 %2 to i64
  %spec.select.i = tail call i64 @llvm.umin.i64(i64 %20, i64 %21)
  %.not74.i = icmp eq i64 %18, 16
  br i1 %.not74.i, label %._crit_edge.i, label %.lr.ph.i

.lr.ph.i:                                         ; preds = %19
  %22 = getelementptr inbounds nuw i8, ptr %0, i64 72
  %umax.i = tail call i64 @llvm.umax.i64(i64 %spec.select.i, i64 1)
  br label %23

23:                                               ; preds = %23, %.lr.ph.i
  %.05972.i = phi i64 [ 0, %.lr.ph.i ], [ %28, %23 ]
  %24 = getelementptr inbounds nuw i8, ptr %1, i64 %.05972.i
  %25 = load i8, ptr %24, align 1, !tbaa !10
  %26 = add i64 %.05972.i, %18
  %27 = getelementptr inbounds nuw [16 x i8], ptr %22, i64 0, i64 %26
  store i8 %25, ptr %27, align 1, !tbaa !10
  %28 = add nuw nsw i64 %.05972.i, 1
  %exitcond.not.i = icmp eq i64 %28, %umax.i
  br i1 %exitcond.not.i, label %._crit_edge.i, label %23, !llvm.loop !11

._crit_edge.i:                                    ; preds = %23, %19
  %29 = add i64 %spec.select.i, %18
  store i64 %29, ptr %17, align 8, !tbaa !7
  %30 = icmp ugt i64 %29, 15
  br i1 %30, label %31, label %wc_Poly1305Update.exit

31:                                               ; preds = %._crit_edge.i
  %32 = getelementptr inbounds nuw i8, ptr %1, i64 %spec.select.i
  %33 = trunc nuw i64 %spec.select.i to i32
  %34 = sub i32 %2, %33
  %35 = getelementptr inbounds nuw i8, ptr %0, i64 72
  tail call fastcc void @poly1305_blocks(ptr noundef nonnull %0, ptr noundef nonnull readonly %35, i64 noundef 16)
  store i64 0, ptr %17, align 8, !tbaa !7
  br label %36

36:                                               ; preds = %31, %16
  %.061.i = phi i32 [ %34, %31 ], [ %2, %16 ]
  %.053.i = phi ptr [ %32, %31 ], [ %1, %16 ]
  %37 = icmp ugt i32 %.061.i, 15
  br i1 %37, label %38, label %43

38:                                               ; preds = %36
  %39 = and i32 %.061.i, -16
  %40 = zext i32 %39 to i64
  tail call fastcc void @poly1305_blocks(ptr noundef %0, ptr noundef %.053.i, i64 noundef %40)
  %41 = and i32 %.061.i, 15
  %42 = getelementptr inbounds nuw i8, ptr %.053.i, i64 %40
  br label %43

43:                                               ; preds = %38, %36
  %.162.i = phi i32 [ %41, %38 ], [ %.061.i, %36 ]
  %.154.i = phi ptr [ %42, %38 ], [ %.053.i, %36 ]
  %.not71.i = icmp eq i32 %.162.i, 0
  br i1 %.not71.i, label %wc_Poly1305Update.exit, label %.preheader.i

.preheader.i:                                     ; preds = %43
  %44 = zext nneg i32 %.162.i to i64
  %45 = getelementptr inbounds nuw i8, ptr %0, i64 72
  %46 = load i64, ptr %17, align 8, !tbaa !7
  br label %47

47:                                               ; preds = %47, %.preheader.i
  %.16073.i = phi i64 [ 0, %.preheader.i ], [ %52, %47 ]
  %48 = getelementptr inbounds nuw i8, ptr %.154.i, i64 %.16073.i
  %49 = load i8, ptr %48, align 1, !tbaa !10
  %50 = add i64 %.16073.i, %46
  %51 = getelementptr inbounds nuw [16 x i8], ptr %45, i64 0, i64 %50
  store i8 %49, ptr %51, align 1, !tbaa !10
  %52 = add nuw nsw i64 %.16073.i, 1
  %exitcond75.not.i = icmp eq i64 %52, %44
  br i1 %exitcond75.not.i, label %53, label %47, !llvm.loop !13

53:                                               ; preds = %47
  %54 = add i64 %46, %44
  store i64 %54, ptr %17, align 8, !tbaa !7
  br label %wc_Poly1305Update.exit

wc_Poly1305Update.exit:                           ; preds = %53, %43, %._crit_edge.i
  %55 = tail call i32 @wc_Poly1305_Pad(ptr noundef nonnull %0, i32 noundef %2)
  %.not43 = icmp eq i32 %55, 0
  br i1 %.not43, label %56, label %94

56:                                               ; preds = %wc_Poly1305Update.exit, %13
  %57 = tail call i32 @wc_Poly1305Update(ptr noundef nonnull %0, ptr noundef %3, i32 noundef %4)
  %.not44 = icmp eq i32 %57, 0
  br i1 %.not44, label %58, label %94

58:                                               ; preds = %56
  %59 = tail call i32 @wc_Poly1305_Pad(ptr noundef nonnull %0, i32 noundef %4)
  %.not45 = icmp eq i32 %59, 0
  br i1 %.not45, label %60, label %94

60:                                               ; preds = %58
  call void @llvm.lifetime.start.p0(i64 16, ptr nonnull %8) #6
  %61 = zext i32 %2 to i64
  store i64 %61, ptr %8, align 16, !tbaa !3
  %62 = getelementptr inbounds nuw i8, ptr %8, i64 8
  %63 = zext i32 %4 to i64
  store i64 %63, ptr %62, align 8, !tbaa !3
  %64 = getelementptr inbounds nuw i8, ptr %0, i64 64
  %65 = load i64, ptr %64, align 8, !tbaa !7
  %.not.i.i = icmp eq i64 %65, 0
  br i1 %.not.i.i, label %.thread.i, label %66

66:                                               ; preds = %60
  %67 = sub i64 16, %65
  %spec.select.i.i = tail call i64 @llvm.umin.i64(i64 %67, i64 16)
  %.not74.i.i = icmp eq i64 %65, 16
  br i1 %.not74.i.i, label %._crit_edge.i.i, label %.lr.ph.i.i

.lr.ph.i.i:                                       ; preds = %66
  %umax.i.i = tail call i64 @llvm.umax.i64(i64 %spec.select.i.i, i64 1)
  %68 = getelementptr i8, ptr %0, i64 %65
  %scevgep.i = getelementptr i8, ptr %68, i64 72
  call void @llvm.memcpy.p0.p0.i64(ptr noundef nonnull align 1 dereferenceable(1) %scevgep.i, ptr noundef nonnull align 16 dereferenceable(1) %8, i64 %umax.i.i, i1 false), !tbaa !10
  br label %._crit_edge.i.i

._crit_edge.i.i:                                  ; preds = %.lr.ph.i.i, %66
  %69 = add i64 %spec.select.i.i, %65
  store i64 %69, ptr %64, align 8, !tbaa !7
  %70 = icmp ugt i64 %69, 15
  br i1 %70, label %71, label %92

71:                                               ; preds = %._crit_edge.i.i
  %72 = getelementptr inbounds nuw i8, ptr %8, i64 %spec.select.i.i
  %73 = trunc nuw nsw i64 %spec.select.i.i to i32
  %74 = sub nuw nsw i32 16, %73
  %75 = getelementptr inbounds nuw i8, ptr %0, i64 72
  tail call fastcc void @poly1305_blocks(ptr noundef nonnull %0, ptr noundef nonnull readonly %75, i64 noundef 16)
  store i64 0, ptr %64, align 8, !tbaa !7
  br i1 %.not74.i.i, label %.thread.i, label %80

.thread.i:                                        ; preds = %71, %60
  %.053.i9.i = phi ptr [ %72, %71 ], [ %8, %60 ]
  %.061.i8.i = phi i32 [ %74, %71 ], [ 16, %60 ]
  %76 = and i32 %.061.i8.i, 16
  %77 = zext nneg i32 %76 to i64
  call fastcc void @poly1305_blocks(ptr noundef nonnull %0, ptr noundef nonnull %.053.i9.i, i64 noundef %77)
  %78 = and i32 %.061.i8.i, 15
  %79 = getelementptr inbounds nuw i8, ptr %.053.i9.i, i64 %77
  br label %80

80:                                               ; preds = %.thread.i, %71
  %.162.i.i = phi i32 [ %78, %.thread.i ], [ %74, %71 ]
  %.154.i.i = phi ptr [ %79, %.thread.i ], [ %72, %71 ]
  %.not71.i.i = icmp eq i32 %.162.i.i, 0
  br i1 %.not71.i.i, label %92, label %.preheader.i.i

.preheader.i.i:                                   ; preds = %80
  %81 = zext nneg i32 %.162.i.i to i64
  %82 = getelementptr inbounds nuw i8, ptr %0, i64 72
  %83 = load i64, ptr %64, align 8, !tbaa !7
  br label %84

84:                                               ; preds = %84, %.preheader.i.i
  %.16073.i.i = phi i64 [ 0, %.preheader.i.i ], [ %89, %84 ]
  %85 = getelementptr inbounds nuw i8, ptr %.154.i.i, i64 %.16073.i.i
  %86 = load i8, ptr %85, align 1, !tbaa !10
  %87 = add i64 %.16073.i.i, %83
  %88 = getelementptr inbounds nuw [16 x i8], ptr %82, i64 0, i64 %87
  store i8 %86, ptr %88, align 1, !tbaa !10
  %89 = add nuw nsw i64 %.16073.i.i, 1
  %exitcond75.not.i.i = icmp eq i64 %89, %81
  br i1 %exitcond75.not.i.i, label %90, label %84, !llvm.loop !13

90:                                               ; preds = %84
  %91 = add i64 %83, %81
  store i64 %91, ptr %64, align 8, !tbaa !7
  br label %92

92:                                               ; preds = %90, %80, %._crit_edge.i.i
  call void @llvm.lifetime.end.p0(i64 16, ptr nonnull %8) #6
  %93 = tail call i32 @wc_Poly1305Final(ptr noundef nonnull %0, ptr noundef %5)
  br label %94

94:                                               ; preds = %58, %56, %wc_Poly1305Update.exit, %14, %7, %92
  %.0 = phi i32 [ %93, %92 ], [ -173, %7 ], [ -173, %14 ], [ %55, %wc_Poly1305Update.exit ], [ %57, %56 ], [ %59, %58 ]
  ret i32 %.0
}